; Function Attrs: mustprogress nounwind uwtable
define noundef nonnull align 8 dereferenceable(57) ptr @_ZN32pxrInternal_v0_24__pxrReserved__14SdfPathPattern21RemoveTrailingStretchEv(ptr noundef nonnull returned align 8 dereferenceable(57) %0) local_unnamed_addr #2 align 2 {
  %2 = getelementptr inbounds nuw i8, ptr %0, i64 56
  %3 = load i8, ptr %2, align 8
  %4 = trunc i8 %3 to i1
  br i1 %4, label %_ZNK32pxrInternal_v0_24__pxrReserved__14SdfPathPattern18HasTrailingStretchEv.exit.thread, label %5

5:                                                ; preds = %1
  %6 = getelementptr inbounds nuw i8, ptr %0, i64 8
  %7 = load ptr, ptr %6, align 8
  %8 = getelementptr inbounds i8, ptr %0, i64 16
  %9 = load ptr, ptr %8, align 8
  %10 = icmp eq ptr %7, %9
  br i1 %10, label %_ZNK32pxrInternal_v0_24__pxrReserved__14SdfPathPattern18HasTrailingStretchEv.exit.thread, label %11

11:                                               ; preds = %5
  %12 = getelementptr inbounds i8, ptr %9, i64 -8
  %13 = load i32, ptr %12, align 8
  %14 = icmp eq i32 %13, -1
  br i1 %14, label %_ZNK32pxrInternal_v0_24__pxrReserved__14SdfPathPattern18HasTrailingStretchEv.exit, label %_ZNK32pxrInternal_v0_24__pxrReserved__14SdfPathPattern18HasTrailingStretchEv.exit.thread

_ZNK32pxrInternal_v0_24__pxrReserved__14SdfPathPattern18HasTrailingStretchEv.exit: ; preds = %11
  %15 = getelementptr inbounds i8, ptr %9, i64 -40
  %16 = tail call noundef zeroext i1 @_ZNKSt7__cxx1112basic_stringIcSt11char_traitsIcESaIcEE5emptyEv(ptr noundef nonnull align 8 dereferenceable(32) %15) #17
  br i1 %16, label %17, label %_ZNK32pxrInternal_v0_24__pxrReserved__14SdfPathPattern18HasTrailingStretchEv.exit.thread

17:                                               ; preds = %_ZNK32pxrInternal_v0_24__pxrReserved__14SdfPathPattern18HasTrailingStretchEv.exit
  %18 = load ptr, ptr %8, align 8
  %19 = getelementptr inbounds i8, ptr %18, i64 -40
  store ptr %19, ptr %8, align 8
  tail call void @_ZNSt7__cxx1112basic_stringIcSt11char_traitsIcESaIcEED1Ev(ptr noundef nonnull align 8 dereferenceable(32) %19) #17
  br label %_ZNK32pxrInternal_v0_24__pxrReserved__14SdfPathPattern18HasTrailingStretchEv.exit.thread

_ZNK32pxrInternal_v0_24__pxrReserved__14SdfPathPattern18HasTrailingStretchEv.exit.thread: ; preds = %11, %1, %5, %17, %_ZNK32pxrInternal_v0_24__pxrReserved__14SdfPathPattern18HasTrailingStretchEv.exit
  ret ptr %0
}